target datalayout = "e-m:e-p270:32:32-p271:32:32-p272:64:64-i64:64-i128:128-f80:128-n8:16:32:64-S128"
target triple = "x86_64-pc-linux-gnu"

%class.QString = type { ptr }

@.str.18 = private unnamed_addr constant [12 x i8] c"Show Normal\00", align 1
@.str.19 = private unnamed_addr constant [15 x i8] c"Show Curvature\00", align 1
@.str.20 = private unnamed_addr constant [17 x i8] c"Show Box Corners\00", align 1
@.str.21 = private unnamed_addr constant [10 x i8] c"Show Axis\00", align 1
@.str.22 = private unnamed_addr constant [12 x i8] c"Show Labels\00", align 1
@.str.23 = private unnamed_addr constant [12 x i8] c"Show Camera\00", align 1
@.str.24 = private unnamed_addr constant [18 x i8] c"Show UV Tex Param\00", align 1
@.str.25 = private unnamed_addr constant [30 x i8] c"Show Vertex Quality Histogram\00", align 1
@.str.26 = private unnamed_addr constant [28 x i8] c"Show Face Quality Histogram\00", align 1
@.str.27 = private unnamed_addr constant [21 x i8] c"Show Quality Contour\00", align 1
@.str.28 = private unnamed_addr constant [18 x i8] c"Show Current Mesh\00", align 1
@.str.29 = private unnamed_addr constant [7 x i8] c"error!\00", align 1

; Function Attrs: mustprogress uwtable
define linkonce_odr void @_ZN7QStringC2EPKc(ptr noundef nonnull align 8 dereferenceable(8) %0, ptr noundef %1) unnamed_addr #5 comdat align 2 {
  %3 = alloca ptr, align 8
  %4 = alloca ptr, align 8
  store ptr %0, ptr %3, align 8
  store ptr %1, ptr %4, align 8
  %5 = load ptr, ptr %3, align 8
  %6 = getelementptr inbounds %class.QString, ptr %5, i32 0, i32 0
  %7 = load ptr, ptr %4, align 8
  %8 = load ptr, ptr %4, align 8
  %9 = icmp ne ptr %8, null
  br i1 %9, label %10, label %14

10:                                               ; preds = %2
  %11 = load ptr, ptr %4, align 8
  %12 = call i64 @strlen(ptr noundef %11) #23
  %13 = trunc i64 %12 to i32
  br label %15

14:                                               ; preds = %2
  br label %15

15:                                               ; preds = %14, %10
  %16 = phi i32 [ %13, %10 ], [ -1, %14 ]
  %17 = call noundef ptr @_ZN7QString16fromAscii_helperEPKci(ptr noundef %7, i32 noundef %16)
  store ptr %17, ptr %6, align 8
  ret void
}

; Function Attrs: mustprogress uwtable
define void @_ZNK18DecorateBasePlugin14decorationNameEi(ptr dead_on_unwind noalias writable sret(%class.QString) align 8 %0, ptr noundef nonnull align 8 dereferenceable(192) %1, i32 noundef %2) unnamed_addr #5 align 2 {
  %4 = alloca ptr, align 8
  %5 = alloca ptr, align 8
  %6 = alloca i32, align 4
  store ptr %0, ptr %4, align 8
  store ptr %1, ptr %5, align 8
  store i32 %2, ptr %6, align 4
  %7 = load i32, ptr %6, align 4
  switch i32 %7, label %19 [
    i32 4, label %8
    i32 9, label %9
    i32 1, label %10
    i32 0, label %11
    i32 10, label %12
    i32 3, label %13
    i32 5, label %14
    i32 6, label %15
    i32 7, label %16
    i32 8, label %17
    i32 2, label %18
  ]

8:                                                ; preds = %3
  call void @_ZN7QStringC2EPKc(ptr noundef nonnull align 8 dereferenceable(8) %0, ptr noundef @.str.18)
  br label %21

9:                                                ; preds = %3
  call void @_ZN7QStringC2EPKc(ptr noundef nonnull align 8 dereferenceable(8) %0, ptr noundef @.str.19)
  br label %21

10:                                               ; preds = %3
  call void @_ZN7QStringC2EPKc(ptr noundef nonnull align 8 dereferenceable(8) %0, ptr noundef @.str.20)
  br label %21

11:                                               ; preds = %3
  call void @_ZN7QStringC2EPKc(ptr noundef nonnull align 8 dereferenceable(8) %0, ptr noundef @.str.21)
  br label %21

12:                                               ; preds = %3
  call void @_ZN7QStringC2EPKc(ptr noundef nonnull align 8 dereferenceable(8) %0, ptr noundef @.str.22)
  br label %21

13:                                               ; preds = %3
  call void @_ZN7QStringC2EPKc(ptr noundef nonnull align 8 dereferenceable(8) %0, ptr noundef @.str.23)
  br label %21

14:                                               ; preds = %3
  call void @_ZN7QStringC2EPKc(ptr noundef nonnull align 8 dereferenceable(8) %0, ptr noundef @.str.24)
  br label %21

15:                                               ; preds = %3
  call void @_ZN7QStringC2EPKc(ptr noundef nonnull align 8 dereferenceable(8) %0, ptr noundef @.str.25)
  br label %21

16:                                               ; preds = %3
  call void @_ZN7QStringC2EPKc(ptr noundef nonnull align 8 dereferenceable(8) %0, ptr noundef @.str.26)
  br label %21

17:                                               ; preds = %3
  call void @_ZN7QStringC2EPKc(ptr noundef nonnull align 8 dereferenceable(8) %0, ptr noundef @.str.27)
  br label %21

18:                                               ; preds = %3
  call void @_ZN7QStringC2EPKc(ptr noundef nonnull align 8 dereferenceable(8) %0, ptr noundef @.str.28)
  br label %21

19:                                               ; preds = %3
  br label %20

20:                                               ; preds = %19
  call void @_ZN7QStringC2EPKc(ptr noundef nonnull align 8 dereferenceable(8) %0, ptr noundef @.str.29)
  br label %21

21:                                               ; preds = %20, %18, %17, %16, %15, %14, %13, %12, %11, %10, %9, %8
  ret void
}